target datalayout = "e-m:e-p270:32:32-p271:32:32-p272:64:64-i64:64-i128:128-f80:128-n8:16:32:64-S128"
target triple = "x86_64-pc-linux-gnu"

%struct._packet_info = type { ptr, ptr, i32, i32, %struct.nstime_t, %struct.nstime_t, %struct.nstime_t, i8, ptr, ptr, ptr, ptr, %struct._address, %struct._address, %struct._address, %struct._address, %struct._address, %struct._address, i32, ptr, i8, [3 x i8], %struct.anon, i32, i32, i32, i32, ptr, i8, ptr, ptr, i16, i16, i32, i32, i16, i32, i32, ptr, ptr, ptr, i8, i8, i16, i16, i16, i32, i16, i16, ptr, ptr, ptr, ptr, ptr, i32, i32 }
%struct.nstime_t = type { i64, i32 }
%struct._address = type { i32, i32, ptr, ptr }
%struct.anon = type { i8, [3 x i8] }

@hf_kafka_error = internal global i32 0, align 4
@hf_kafka_throttle_time = internal global i32 0, align 4
@ett_kafka_groups = internal global i32 0, align 4
@.str.628 = private unnamed_addr constant [11 x i8] c"Unknown %d\00", align 1
@.str.697 = private unnamed_addr constant [7 x i8] c"Groups\00", align 1
@.str.742 = private unnamed_addr constant [7 x i8] c" [%s] \00", align 1

; Function Attrs: null_pointer_is_valid sspstrong uwtable
define internal ptr @kafka_error_to_str(i16 noundef signext %0) #0 {
  %2 = alloca i16, align 2
  store i16 %0, ptr %2, align 2
  %3 = load i16, ptr %2, align 2
  %4 = sext i16 %3 to i32
  %5 = call ptr @val_to_str(i32 noundef %4, ptr noundef @kafka_errors, ptr noundef @.str.628)
  ret ptr %5
}

; Function Attrs: null_pointer_is_valid sspstrong uwtable
define internal i32 @dissect_kafka_error_ret(ptr noundef %0, ptr noundef %1, ptr noundef %2, i32 noundef %3, ptr noundef %4) #0 {
  %6 = alloca ptr, align 8
  %7 = alloca ptr, align 8
  %8 = alloca ptr, align 8
  %9 = alloca i32, align 4
  %10 = alloca ptr, align 8
  %11 = alloca i16, align 2
  store ptr %0, ptr %6, align 8
  store ptr %1, ptr %7, align 8
  store ptr %2, ptr %8, align 8
  store i32 %3, ptr %9, align 4
  store ptr %4, ptr %10, align 8
  call void @llvm.lifetime.start.p0(i64 2, ptr %11) #12
  %12 = load ptr, ptr %6, align 8
  %13 = load i32, ptr %9, align 4
  %14 = call zeroext i16 @tvb_get_ntohs(ptr noundef %12, i32 noundef %13)
  store i16 %14, ptr %11, align 2
  %15 = load ptr, ptr %8, align 8
  %16 = load i32, ptr @hf_kafka_error, align 4
  %17 = load ptr, ptr %6, align 8
  %18 = load i32, ptr %9, align 4
  %19 = call ptr @proto_tree_add_item(ptr noundef %15, i32 noundef %16, ptr noundef %17, i32 noundef %18, i32 noundef 2, i32 noundef 0)
  %20 = load i32, ptr %9, align 4
  %21 = add i32 %20, 2
  store i32 %21, ptr %9, align 4
  %22 = load i16, ptr %11, align 2
  %23 = sext i16 %22 to i32
  %24 = icmp ne i32 %23, 0
  br i1 %24, label %25, label %31

25:                                               ; preds = %5
  %26 = load ptr, ptr %7, align 8
  %27 = getelementptr inbounds nuw %struct._packet_info, ptr %26, i32 0, i32 1
  %28 = load ptr, ptr %27, align 8
  %29 = load i16, ptr %11, align 2
  %30 = call ptr @kafka_error_to_str(i16 noundef signext %29)
  call void (ptr, i32, ptr, ...) @col_append_fstr(ptr noundef %28, i32 noundef 25, ptr noundef @.str.742, ptr noundef %30)
  br label %31

31:                                               ; preds = %25, %5
  %32 = load ptr, ptr %10, align 8
  %33 = icmp ne ptr %32, null
  br i1 %33, label %34, label %37

34:                                               ; preds = %31
  %35 = load i16, ptr %11, align 2
  %36 = load ptr, ptr %10, align 8
  store i16 %35, ptr %36, align 2
  br label %37

37:                                               ; preds = %34, %31
  %38 = load i32, ptr %9, align 4
  call void @llvm.lifetime.end.p0(i64 2, ptr %11) #12
  ret i32 %38
}

; Function Attrs: null_pointer_is_valid sspstrong uwtable
define internal i32 @dissect_kafka_error(ptr noundef %0, ptr noundef %1, ptr noundef %2, i32 noundef %3) #0 {
  %5 = alloca ptr, align 8
  %6 = alloca ptr, align 8
  %7 = alloca ptr, align 8
  %8 = alloca i32, align 4
  store ptr %0, ptr %5, align 8
  store ptr %1, ptr %6, align 8
  store ptr %2, ptr %7, align 8
  store i32 %3, ptr %8, align 4
  %9 = load ptr, ptr %5, align 8
  %10 = load ptr, ptr %6, align 8
  %11 = load ptr, ptr %7, align 8
  %12 = load i32, ptr %8, align 4
  %13 = call i32 @dissect_kafka_error_ret(ptr noundef %9, ptr noundef %10, ptr noundef %11, i32 noundef %12, ptr noundef null)
  ret i32 %13
}

; Function Attrs: null_pointer_is_valid sspstrong uwtable
define internal i32 @dissect_kafka_throttle_time(ptr noundef %0, ptr noundef %1, ptr noundef %2, i32 noundef %3) #0 {
  %5 = alloca ptr, align 8
  %6 = alloca ptr, align 8
  %7 = alloca ptr, align 8
  %8 = alloca i32, align 4
  store ptr %0, ptr %5, align 8
  store ptr %1, ptr %6, align 8
  store ptr %2, ptr %7, align 8
  store i32 %3, ptr %8, align 4
  %9 = load ptr, ptr %7, align 8
  %10 = load i32, ptr @hf_kafka_throttle_time, align 4
  %11 = load ptr, ptr %5, align 8
  %12 = load i32, ptr %8, align 4
  %13 = call ptr @proto_tree_add_item(ptr noundef %9, i32 noundef %10, ptr noundef %11, i32 noundef %12, i32 noundef 4, i32 noundef 0)
  %14 = load i32, ptr %8, align 4
  %15 = add i32 %14, 4
  store i32 %15, ptr %8, align 4
  %16 = load i32, ptr %8, align 4
  ret i32 %16
}

; Function Attrs: null_pointer_is_valid sspstrong uwtable
define internal i32 @dissect_kafka_list_groups_response(ptr noundef %0, ptr noundef %1, ptr noundef %2, i32 noundef %3, i16 noundef signext %4) #0 {
  %6 = alloca ptr, align 8
  %7 = alloca ptr, align 8
  %8 = alloca ptr, align 8
  %9 = alloca i32, align 4
  %10 = alloca i16, align 2
  %11 = alloca ptr, align 8
  %12 = alloca ptr, align 8
  store ptr %0, ptr %6, align 8
  store ptr %1, ptr %7, align 8
  store ptr %2, ptr %8, align 8
  store i32 %3, ptr %9, align 4
  store i16 %4, ptr %10, align 2
  call void @llvm.lifetime.start.p0(i64 8, ptr %11) #12
  call void @llvm.lifetime.start.p0(i64 8, ptr %12) #12
  %13 = load i16, ptr %10, align 2
  %14 = sext i16 %13 to i32
  %15 = icmp sge i32 %14, 1
  br i1 %15, label %16, label %22

16:                                               ; preds = %5
  %17 = load ptr, ptr %6, align 8
  %18 = load ptr, ptr %7, align 8
  %19 = load ptr, ptr %8, align 8
  %20 = load i32, ptr %9, align 4
  %21 = call i32 @dissect_kafka_throttle_time(ptr noundef %17, ptr noundef %18, ptr noundef %19, i32 noundef %20)
  store i32 %21, ptr %9, align 4
  br label %22

22:                                               ; preds = %16, %5
  %23 = load ptr, ptr %6, align 8
  %24 = load ptr, ptr %7, align 8
  %25 = load ptr, ptr %8, align 8
  %26 = load i32, ptr %9, align 4
  %27 = call i32 @dissect_kafka_error(ptr noundef %23, ptr noundef %24, ptr noundef %25, i32 noundef %26)
  store i32 %27, ptr %9, align 4
  %28 = load ptr, ptr %8, align 8
  %29 = load ptr, ptr %6, align 8
  %30 = load i32, ptr %9, align 4
  %31 = load i32, ptr @ett_kafka_groups, align 4
  %32 = call ptr @proto_tree_add_subtree(ptr noundef %28, ptr noundef %29, i32 noundef %30, i32 noundef -1, i32 noundef %31, ptr noundef %11, ptr noundef @.str.697)
  store ptr %32, ptr %12, align 8
  %33 = load ptr, ptr %12, align 8
  %34 = load ptr, ptr %6, align 8
  %35 = load ptr, ptr %7, align 8
  %36 = load i32, ptr %9, align 4
  %37 = load i16, ptr %10, align 2
  %38 = sext i16 %37 to i32
  %39 = icmp sge i32 %38, 3
  %40 = zext i1 %39 to i32
  %41 = load i16, ptr %10, align 2
  %42 = call i32 @dissect_kafka_array(ptr noundef %33, ptr noundef %34, ptr noundef %35, i32 noundef %36, i32 noundef %40, i16 noundef signext %41, ptr noundef @dissect_kafka_list_groups_response_group, ptr noundef null)
  store i32 %42, ptr %9, align 4
  %43 = load ptr, ptr %11, align 8
  %44 = load ptr, ptr %6, align 8
  %45 = load i32, ptr %9, align 4
  call void @proto_item_set_end(ptr noundef %43, ptr noundef %44, i32 noundef %45)
  %46 = load i16, ptr %10, align 2
  %47 = sext i16 %46 to i32
  %48 = icmp sge i32 %47, 3
  br i1 %48, label %49, label %55

49:                                               ; preds = %22
  %50 = load ptr, ptr %6, align 8
  %51 = load ptr, ptr %7, align 8
  %52 = load ptr, ptr %8, align 8
  %53 = load i32, ptr %9, align 4
  %54 = call i32 @dissect_kafka_tagged_fields(ptr noundef %50, ptr noundef %51, ptr noundef %52, i32 noundef %53, i16 noundef signext 0)
  store i32 %54, ptr %9, align 4
  br label %55

55:                                               ; preds = %49, %22
  %56 = load i32, ptr %9, align 4
  call void @llvm.lifetime.end.p0(i64 8, ptr %12) #12
  call void @llvm.lifetime.end.p0(i64 8, ptr %11) #12
  ret i32 %56
}